; Function Attrs: mustprogress uwtable
define hidden noundef zeroext i1 @_ZN2bv6solver7visitedEP4expr(ptr noundef nonnull align 8 dereferenceable(640) %0, ptr noundef %1) unnamed_addr #3 align 2 {
  %3 = tail call noundef ptr @_ZNK3euf13th_euf_solver10expr2enodeEP4expr(ptr noundef nonnull align 8 dereferenceable(108) %0, ptr noundef %1)
  %.not = icmp eq ptr %3, null
  br i1 %.not, label %_ZNK3euf5enode14is_attached_toEi.exit, label %4

4:                                                ; preds = %2
  %5 = getelementptr inbounds nuw i8, ptr %0, i64 12
  %6 = load i32, ptr %5, align 4, !tbaa !65
  %7 = getelementptr inbounds nuw i8, ptr %3, i64 88
  %8 = load i32, ptr %7, align 8
  %9 = icmp ugt i32 %8, -257
  br i1 %9, label %_ZNK3euf5enode14is_attached_toEi.exit, label %.preheader.i.i.i

.preheader.i.i.i:                                 ; preds = %4, %16
  %.0.i.i.i = phi ptr [ %18, %16 ], [ %7, %4 ]
  %10 = load i32, ptr %.0.i.i.i, align 8
  %11 = shl i32 %10, 24
  %12 = ashr exact i32 %11, 24
  %13 = icmp eq i32 %6, %12
  br i1 %13, label %14, label %16

14:                                               ; preds = %.preheader.i.i.i
  %15 = icmp ult i32 %10, -256
  br label %_ZNK3euf5enode14is_attached_toEi.exit

16:                                               ; preds = %.preheader.i.i.i
  %17 = getelementptr inbounds nuw i8, ptr %.0.i.i.i, i64 8
  %18 = load ptr, ptr %17, align 8, !tbaa !76
  %.not.i.i.i = icmp eq ptr %18, null
  br i1 %.not.i.i.i, label %_ZNK3euf5enode14is_attached_toEi.exit, label %.preheader.i.i.i, !llvm.loop !79

_ZNK3euf5enode14is_attached_toEi.exit:            ; preds = %16, %14, %4, %2
  %19 = phi i1 [ false, %2 ], [ false, %4 ], [ %15, %14 ], [ false, %16 ]
  ret i1 %19
}